; Function Attrs: mustprogress uwtable
define noundef double @_ZNK10open_spiel10backgammon14BackgammonGame10MaxUtilityEv(ptr nocapture noundef nonnull readonly align 8 dereferenceable(285) %0) unnamed_addr #4 align 2 personality ptr @__gxx_personality_v0 {
  %2 = alloca %"class.std::__cxx11::basic_string", align 8
  %3 = alloca %"class.std::allocator.12", align 1
  %4 = getelementptr inbounds nuw i8, ptr %0, i64 284
  %5 = load i8, ptr %4, align 4
  %6 = trunc i8 %5 to i1
  br i1 %6, label %20, label %7

7:                                                ; preds = %1
  %8 = getelementptr inbounds nuw i8, ptr %0, i64 280
  %9 = load i32, ptr %8, align 8
  %10 = icmp ult i32 %9, 3
  br i1 %10, label %switch.lookup, label %11

11:                                               ; preds = %7
  call void @_ZNSaIcEC1Ev(ptr noundef nonnull align 1 dereferenceable(1) %3) #30
  invoke void @_ZNSt7__cxx1112basic_stringIcSt11char_traitsIcESaIcEEC2IS3_EEPKcRKS3_(ptr noundef nonnull align 8 dereferenceable(32) %2, ptr noundef nonnull @.str.128, ptr noundef nonnull align 1 dereferenceable(1) %3)
          to label %12 unwind label %14

12:                                               ; preds = %11
  invoke void @_ZN10open_spiel15SpielFatalErrorERKNSt7__cxx1112basic_stringIcSt11char_traitsIcESaIcEEE(ptr noundef nonnull align 8 dereferenceable(32) %2) #29
          to label %13 unwind label %16

13:                                               ; preds = %12
  unreachable

14:                                               ; preds = %11
  %15 = landingpad { ptr, i32 }
          cleanup
  br label %18

16:                                               ; preds = %12
  %17 = landingpad { ptr, i32 }
          cleanup
  call void @_ZNSt7__cxx1112basic_stringIcSt11char_traitsIcESaIcEED1Ev(ptr noundef nonnull align 8 dereferenceable(32) %2) #30
  br label %18

18:                                               ; preds = %16, %14
  %.pn = phi { ptr, i32 } [ %17, %16 ], [ %15, %14 ]
  call void @_ZNSaIcED1Ev(ptr noundef nonnull align 1 dereferenceable(1) %3) #30
  resume { ptr, i32 } %.pn

switch.lookup:                                    ; preds = %7
  %19 = zext nneg i32 %9 to i64
  %switch.gep = getelementptr inbounds [3 x double], ptr @switch.table._ZNK10open_spiel10backgammon14BackgammonGame10MaxUtilityEv, i64 0, i64 %19
  %switch.load = load double, ptr %switch.gep, align 8
  br label %20

20:                                               ; preds = %switch.lookup, %1
  %.04 = phi double [ 1.000000e+00, %1 ], [ %switch.load, %switch.lookup ]
  ret double %.04
}